target datalayout = "e-m:e-p270:32:32-p271:32:32-p272:64:64-i64:64-i128:128-f80:128-n8:16:32:64-S128"
target triple = "x86_64-unknown-linux-gnu"

%"class.re2::Regexp" = type { i8, i8, i16, i16, i16, %union.anon, ptr, %union.anon.0 }
%union.anon = type { ptr }
%union.anon.0 = type { %struct.anon.1 }
%struct.anon.1 = type { i32, ptr }
%struct.anon.2 = type { i32, ptr }

@_ZN3re26RegexpC1ENS_8RegexpOpENS0_10ParseFlagsE = unnamed_addr alias void (ptr, i32, i32), ptr @_ZN3re26RegexpC2ENS_8RegexpOpENS0_10ParseFlagsE

; Function Attrs: mustprogress nounwind uwtable
define linkonce_odr noundef i32 @_ZN3re2anENS_6Regexp10ParseFlagsES1_(i32 noundef %a, i32 noundef %b) #0 comdat {
entry:
  %a.addr = alloca i32, align 4
  %b.addr = alloca i32, align 4
  store i32 %a, ptr %a.addr, align 4
  store i32 %b, ptr %b.addr, align 4
  %0 = load i32, ptr %a.addr, align 4
  %1 = load i32, ptr %b.addr, align 4
  %and = and i32 %0, %1
  ret i32 %and
}

; Function Attrs: mustprogress uwtable
define noundef ptr @_ZN3re26Regexp6ConcatEPPS0_iNS0_10ParseFlagsE(ptr noundef %sub, i32 noundef %nsub, i32 noundef %flags) #3 align 2 {
entry:
  %sub.addr = alloca ptr, align 8
  %nsub.addr = alloca i32, align 4
  %flags.addr = alloca i32, align 4
  store ptr %sub, ptr %sub.addr, align 8
  store i32 %nsub, ptr %nsub.addr, align 4
  store i32 %flags, ptr %flags.addr, align 4
  %0 = load ptr, ptr %sub.addr, align 8
  %1 = load i32, ptr %nsub.addr, align 4
  %2 = load i32, ptr %flags.addr, align 4
  %call = call noundef ptr @_ZN3re26Regexp17ConcatOrAlternateENS_8RegexpOpEPPS0_iNS0_10ParseFlagsEb(i32 noundef 5, ptr noundef %0, i32 noundef %1, i32 noundef %2, i1 noundef zeroext false)
  ret ptr %call
}

; Function Attrs: mustprogress nounwind uwtable
define linkonce_odr noundef i32 @_ZN3re26Regexp11parse_flagsEv(ptr noundef nonnull align 8 dereferenceable(40) %this) #0 comdat align 2 {
entry:
  %this.addr = alloca ptr, align 8
  store ptr %this, ptr %this.addr, align 8
  %this1 = load ptr, ptr %this.addr, align 8
  %parse_flags_ = getelementptr inbounds %"class.re2::Regexp", ptr %this1, i32 0, i32 2
  %0 = load i16, ptr %parse_flags_, align 2
  %conv = zext i16 %0 to i32
  ret i32 %conv
}

; Function Attrs: mustprogress nounwind uwtable
define linkonce_odr noundef ptr @_ZN3re26Regexp3subEv(ptr noundef nonnull align 8 dereferenceable(40) %this) #0 comdat align 2 {
entry:
  %retval = alloca ptr, align 8
  %this.addr = alloca ptr, align 8
  store ptr %this, ptr %this.addr, align 8
  %this1 = load ptr, ptr %this.addr, align 8
  %nsub_ = getelementptr inbounds %"class.re2::Regexp", ptr %this1, i32 0, i32 4
  %0 = load i16, ptr %nsub_, align 2
  %conv = zext i16 %0 to i32
  %cmp = icmp sle i32 %conv, 1
  br i1 %cmp, label %if.then, label %if.else

if.then:                                          ; preds = %entry
  %1 = getelementptr inbounds %"class.re2::Regexp", ptr %this1, i32 0, i32 5
  store ptr %1, ptr %retval, align 8
  br label %return

if.else:                                          ; preds = %entry
  %2 = getelementptr inbounds %"class.re2::Regexp", ptr %this1, i32 0, i32 5
  %3 = load ptr, ptr %2, align 8
  store ptr %3, ptr %retval, align 8
  br label %return

return:                                           ; preds = %if.else, %if.then
  %4 = load ptr, ptr %retval, align 8
  ret ptr %4
}

; Function Attrs: mustprogress uwtable
define noundef zeroext i1 @_ZN3re26Regexp14RequiredPrefixEPNSt7__cxx1112basic_stringIcSt11char_traitsIcESaIcEEEPbPPS0_(ptr noundef nonnull align 8 dereferenceable(40) %this, ptr noundef %prefix, ptr noundef %foldcase, ptr noundef %suffix) #3 align 2 personality ptr @__gxx_personality_v0 {
entry:
  %retval = alloca i1, align 1
  %this.addr = alloca ptr, align 8
  %prefix.addr = alloca ptr, align 8
  %foldcase.addr = alloca ptr, align 8
  %suffix.addr = alloca ptr, align 8
  %i = alloca i32, align 4
  %re = alloca ptr, align 8
  %j = alloca i32, align 4
  %exn.slot = alloca ptr, align 8
  %ehselector.slot = alloca i32, align 4
  %latin1 = alloca i8, align 1
  %runes = alloca ptr, align 8
  %nrunes = alloca i32, align 4
  store ptr %this, ptr %this.addr, align 8
  store ptr %prefix, ptr %prefix.addr, align 8
  store ptr %foldcase, ptr %foldcase.addr, align 8
  store ptr %suffix, ptr %suffix.addr, align 8
  %this1 = load ptr, ptr %this.addr, align 8
  %0 = load ptr, ptr %prefix.addr, align 8
  call void @_ZNSt7__cxx1112basic_stringIcSt11char_traitsIcESaIcEE5clearEv(ptr noundef nonnull align 8 dereferenceable(32) %0) #16
  %1 = load ptr, ptr %foldcase.addr, align 8
  store i8 0, ptr %1, align 1
  %2 = load ptr, ptr %suffix.addr, align 8
  store ptr null, ptr %2, align 8
  %op_ = getelementptr inbounds %"class.re2::Regexp", ptr %this1, i32 0, i32 0
  %3 = load i8, ptr %op_, align 8
  %conv = zext i8 %3 to i32
  %cmp = icmp ne i32 %conv, 5
  br i1 %cmp, label %if.then, label %if.end

if.then:                                          ; preds = %entry
  store i1 false, ptr %retval, align 1
  br label %return

if.end:                                           ; preds = %entry
  store i32 0, ptr %i, align 4
  br label %while.cond

while.cond:                                       ; preds = %while.body, %if.end
  %4 = load i32, ptr %i, align 4
  %nsub_ = getelementptr inbounds %"class.re2::Regexp", ptr %this1, i32 0, i32 4
  %5 = load i16, ptr %nsub_, align 2
  %conv2 = zext i16 %5 to i32
  %cmp3 = icmp slt i32 %4, %conv2
  br i1 %cmp3, label %land.rhs, label %land.end

land.rhs:                                         ; preds = %while.cond
  %call = call noundef ptr @_ZN3re26Regexp3subEv(ptr noundef nonnull align 8 dereferenceable(40) %this1)
  %6 = load i32, ptr %i, align 4
  %idxprom = sext i32 %6 to i64
  %arrayidx = getelementptr inbounds ptr, ptr %call, i64 %idxprom
  %7 = load ptr, ptr %arrayidx, align 8
  %op_4 = getelementptr inbounds %"class.re2::Regexp", ptr %7, i32 0, i32 0
  %8 = load i8, ptr %op_4, align 8
  %conv5 = zext i8 %8 to i32
  %cmp6 = icmp eq i32 %conv5, 18
  br label %land.end

land.end:                                         ; preds = %land.rhs, %while.cond
  %9 = phi i1 [ false, %while.cond ], [ %cmp6, %land.rhs ]
  br i1 %9, label %while.body, label %while.end

while.body:                                       ; preds = %land.end
  %10 = load i32, ptr %i, align 4
  %inc = add nsw i32 %10, 1
  store i32 %inc, ptr %i, align 4
  br label %while.cond, !llvm.loop !15

while.end:                                        ; preds = %land.end
  %11 = load i32, ptr %i, align 4
  %cmp7 = icmp eq i32 %11, 0
  br i1 %cmp7, label %if.then11, label %lor.lhs.false

lor.lhs.false:                                    ; preds = %while.end
  %12 = load i32, ptr %i, align 4
  %nsub_8 = getelementptr inbounds %"class.re2::Regexp", ptr %this1, i32 0, i32 4
  %13 = load i16, ptr %nsub_8, align 2
  %conv9 = zext i16 %13 to i32
  %cmp10 = icmp sge i32 %12, %conv9
  br i1 %cmp10, label %if.then11, label %if.end12

if.then11:                                        ; preds = %lor.lhs.false, %while.end
  store i1 false, ptr %retval, align 1
  br label %return

if.end12:                                         ; preds = %lor.lhs.false
  %call13 = call noundef ptr @_ZN3re26Regexp3subEv(ptr noundef nonnull align 8 dereferenceable(40) %this1)
  %14 = load i32, ptr %i, align 4
  %idxprom14 = sext i32 %14 to i64
  %arrayidx15 = getelementptr inbounds ptr, ptr %call13, i64 %idxprom14
  %15 = load ptr, ptr %arrayidx15, align 8
  store ptr %15, ptr %re, align 8
  %16 = load ptr, ptr %re, align 8
  %op_16 = getelementptr inbounds %"class.re2::Regexp", ptr %16, i32 0, i32 0
  %17 = load i8, ptr %op_16, align 8
  %conv17 = zext i8 %17 to i32
  %cmp18 = icmp ne i32 %conv17, 3
  br i1 %cmp18, label %land.lhs.true, label %if.end23

land.lhs.true:                                    ; preds = %if.end12
  %18 = load ptr, ptr %re, align 8
  %op_19 = getelementptr inbounds %"class.re2::Regexp", ptr %18, i32 0, i32 0
  %19 = load i8, ptr %op_19, align 8
  %conv20 = zext i8 %19 to i32
  %cmp21 = icmp ne i32 %conv20, 4
  br i1 %cmp21, label %if.then22, label %if.end23

if.then22:                                        ; preds = %land.lhs.true
  store i1 false, ptr %retval, align 1
  br label %return

if.end23:                                         ; preds = %land.lhs.true, %if.end12
  %20 = load i32, ptr %i, align 4
  %inc24 = add nsw i32 %20, 1
  store i32 %inc24, ptr %i, align 4
  %21 = load i32, ptr %i, align 4
  %nsub_25 = getelementptr inbounds %"class.re2::Regexp", ptr %this1, i32 0, i32 4
  %22 = load i16, ptr %nsub_25, align 2
  %conv26 = zext i16 %22 to i32
  %cmp27 = icmp slt i32 %21, %conv26
  br i1 %cmp27, label %if.then28, label %if.else

if.then28:                                        ; preds = %if.end23
  %23 = load i32, ptr %i, align 4
  store i32 %23, ptr %j, align 4
  br label %for.cond

for.cond:                                         ; preds = %for.inc, %if.then28
  %24 = load i32, ptr %j, align 4
  %nsub_29 = getelementptr inbounds %"class.re2::Regexp", ptr %this1, i32 0, i32 4
  %25 = load i16, ptr %nsub_29, align 2
  %conv30 = zext i16 %25 to i32
  %cmp31 = icmp slt i32 %24, %conv30
  br i1 %cmp31, label %for.body, label %for.end

for.body:                                         ; preds = %for.cond
  %call32 = call noundef ptr @_ZN3re26Regexp3subEv(ptr noundef nonnull align 8 dereferenceable(40) %this1)
  %26 = load i32, ptr %j, align 4
  %idxprom33 = sext i32 %26 to i64
  %arrayidx34 = getelementptr inbounds ptr, ptr %call32, i64 %idxprom33
  %27 = load ptr, ptr %arrayidx34, align 8
  %call35 = call noundef ptr @_ZN3re26Regexp6IncrefEv(ptr noundef nonnull align 8 dereferenceable(40) %27)
  br label %for.inc

for.inc:                                          ; preds = %for.body
  %28 = load i32, ptr %j, align 4
  %inc36 = add nsw i32 %28, 1
  store i32 %inc36, ptr %j, align 4
  br label %for.cond, !llvm.loop !16

for.end:                                          ; preds = %for.cond
  %call37 = call noundef ptr @_ZN3re26Regexp3subEv(ptr noundef nonnull align 8 dereferenceable(40) %this1)
  %29 = load i32, ptr %i, align 4
  %idx.ext = sext i32 %29 to i64
  %add.ptr = getelementptr inbounds ptr, ptr %call37, i64 %idx.ext
  %nsub_38 = getelementptr inbounds %"class.re2::Regexp", ptr %this1, i32 0, i32 4
  %30 = load i16, ptr %nsub_38, align 2
  %conv39 = zext i16 %30 to i32
  %31 = load i32, ptr %i, align 4
  %sub = sub nsw i32 %conv39, %31
  %call40 = call noundef i32 @_ZN3re26Regexp11parse_flagsEv(ptr noundef nonnull align 8 dereferenceable(40) %this1)
  %call41 = call noundef ptr @_ZN3re26Regexp6ConcatEPPS0_iNS0_10ParseFlagsE(ptr noundef %add.ptr, i32 noundef %sub, i32 noundef %call40)
  %32 = load ptr, ptr %suffix.addr, align 8
  store ptr %call41, ptr %32, align 8
  br label %if.end45

if.else:                                          ; preds = %if.end23
  %call42 = call noalias noundef nonnull ptr @_Znwm(i64 noundef 40) #19
  %call43 = invoke noundef i32 @_ZN3re26Regexp11parse_flagsEv(ptr noundef nonnull align 8 dereferenceable(40) %this1)
          to label %invoke.cont unwind label %lpad

invoke.cont:                                      ; preds = %if.else
  invoke void @_ZN3re26RegexpC1ENS_8RegexpOpENS0_10ParseFlagsE(ptr noundef nonnull align 8 dereferenceable(40) %call42, i32 noundef 2, i32 noundef %call43)
          to label %invoke.cont44 unwind label %lpad

invoke.cont44:                                    ; preds = %invoke.cont
  %33 = load ptr, ptr %suffix.addr, align 8
  store ptr %call42, ptr %33, align 8
  br label %if.end45

lpad:                                             ; preds = %invoke.cont, %if.else
  %34 = landingpad { ptr, i32 }
          cleanup
  %35 = extractvalue { ptr, i32 } %34, 0
  store ptr %35, ptr %exn.slot, align 8
  %36 = extractvalue { ptr, i32 } %34, 1
  store i32 %36, ptr %ehselector.slot, align 4
  call void @_ZdlPv(ptr noundef %call42) #17
  br label %eh.resume

if.end45:                                         ; preds = %invoke.cont44, %for.end
  %37 = load ptr, ptr %re, align 8
  %call46 = call noundef i32 @_ZN3re26Regexp11parse_flagsEv(ptr noundef nonnull align 8 dereferenceable(40) %37)
  %call47 = call noundef i32 @_ZN3re2anENS_6Regexp10ParseFlagsES1_(i32 noundef %call46, i32 noundef 32)
  %cmp48 = icmp ne i32 %call47, 0
  %frombool = zext i1 %cmp48 to i8
  store i8 %frombool, ptr %latin1, align 1
  %38 = load ptr, ptr %re, align 8
  %op_49 = getelementptr inbounds %"class.re2::Regexp", ptr %38, i32 0, i32 0
  %39 = load i8, ptr %op_49, align 8
  %conv50 = zext i8 %39 to i32
  %cmp51 = icmp eq i32 %conv50, 3
  br i1 %cmp51, label %cond.true, label %cond.false

cond.true:                                        ; preds = %if.end45
  %40 = load ptr, ptr %re, align 8
  %41 = getelementptr inbounds %"class.re2::Regexp", ptr %40, i32 0, i32 7
  br label %cond.end

cond.false:                                       ; preds = %if.end45
  %42 = load ptr, ptr %re, align 8
  %43 = getelementptr inbounds %"class.re2::Regexp", ptr %42, i32 0, i32 7
  %runes_ = getelementptr inbounds %struct.anon.2, ptr %43, i32 0, i32 1
  %44 = load ptr, ptr %runes_, align 8
  br label %cond.end

cond.end:                                         ; preds = %cond.false, %cond.true
  %cond = phi ptr [ %41, %cond.true ], [ %44, %cond.false ]
  store ptr %cond, ptr %runes, align 8
  %45 = load ptr, ptr %re, align 8
  %op_52 = getelementptr inbounds %"class.re2::Regexp", ptr %45, i32 0, i32 0
  %46 = load i8, ptr %op_52, align 8
  %conv53 = zext i8 %46 to i32
  %cmp54 = icmp eq i32 %conv53, 3
  br i1 %cmp54, label %cond.true55, label %cond.false56

cond.true55:                                      ; preds = %cond.end
  br label %cond.end57

cond.false56:                                     ; preds = %cond.end
  %47 = load ptr, ptr %re, align 8
  %48 = getelementptr inbounds %"class.re2::Regexp", ptr %47, i32 0, i32 7
  %nrunes_ = getelementptr inbounds %struct.anon.2, ptr %48, i32 0, i32 0
  %49 = load i32, ptr %nrunes_, align 8
  br label %cond.end57

cond.end57:                                       ; preds = %cond.false56, %cond.true55
  %cond58 = phi i32 [ 1, %cond.true55 ], [ %49, %cond.false56 ]
  store i32 %cond58, ptr %nrunes, align 4
  %50 = load i8, ptr %latin1, align 1
  %tobool = trunc i8 %50 to i1
  %51 = load ptr, ptr %runes, align 8
  %52 = load i32, ptr %nrunes, align 4
  %53 = load ptr, ptr %prefix.addr, align 8
  call void @_ZN3re219ConvertRunesToBytesEbPiiPNSt7__cxx1112basic_stringIcSt11char_traitsIcESaIcEEE(i1 noundef zeroext %tobool, ptr noundef %51, i32 noundef %52, ptr noundef %53)
  %54 = load ptr, ptr %re, align 8
  %call59 = call noundef i32 @_ZN3re26Regexp11parse_flagsEv(ptr noundef nonnull align 8 dereferenceable(40) %54)
  %call60 = call noundef i32 @_ZN3re2anENS_6Regexp10ParseFlagsES1_(i32 noundef %call59, i32 noundef 1)
  %cmp61 = icmp ne i32 %call60, 0
  %55 = load ptr, ptr %foldcase.addr, align 8
  %frombool62 = zext i1 %cmp61 to i8
  store i8 %frombool62, ptr %55, align 1
  store i1 true, ptr %retval, align 1
  br label %return

return:                                           ; preds = %cond.end57, %if.then22, %if.then11, %if.then
  %56 = load i1, ptr %retval, align 1
  ret i1 %56

eh.resume:                                        ; preds = %lpad
  %exn = load ptr, ptr %exn.slot, align 8
  %sel = load i32, ptr %ehselector.slot, align 4
  %lpad.val = insertvalue { ptr, i32 } poison, ptr %exn, 0
  %lpad.val63 = insertvalue { ptr, i32 } %lpad.val, i32 %sel, 1
  resume { ptr, i32 } %lpad.val63
}